; Function Attrs: nofree norecurse nosync nounwind memory(argmem: readwrite) uwtable
define internal i32 @pg_ascii2wchar_with_len(ptr noundef readonly captures(none) %0, ptr noundef writeonly captures(none) %1, i32 noundef %2) #2 {
  %4 = icmp sgt i32 %2, 0
  br i1 %4, label %.lr.ph, label %.critedge

.lr.ph:                                           ; preds = %3, %6
  %.014 = phi i32 [ %10, %6 ], [ 0, %3 ]
  %.0812 = phi ptr [ %9, %6 ], [ %1, %3 ]
  %.0911 = phi ptr [ %8, %6 ], [ %0, %3 ]
  %5 = load i8, ptr %.0911, align 1
  %.not = icmp eq i8 %5, 0
  br i1 %.not, label %.critedge, label %6

6:                                                ; preds = %.lr.ph
  %7 = zext i8 %5 to i32
  %8 = getelementptr inbounds nuw i8, ptr %.0911, i64 1
  %9 = getelementptr inbounds nuw i8, ptr %.0812, i64 4
  store i32 %7, ptr %.0812, align 4
  %10 = add nuw nsw i32 %.014, 1
  %exitcond.not = icmp eq i32 %10, %2
  br i1 %exitcond.not, label %.critedge, label %.lr.ph, !llvm.loop !4

.critedge:                                        ; preds = %.lr.ph, %6, %3
  %.08.lcssa = phi ptr [ %1, %3 ], [ %9, %6 ], [ %.0812, %.lr.ph ]
  %.0.lcssa = phi i32 [ 0, %3 ], [ %2, %6 ], [ %.014, %.lr.ph ]
  store i32 0, ptr %.08.lcssa, align 4
  ret i32 %.0.lcssa
}